target datalayout = "e-m:e-p270:32:32-p271:32:32-p272:64:64-i64:64-i128:128-f80:128-n8:16:32:64-S128"
target triple = "x86_64-pc-linux-gnu"

%"class.net::QuicTime" = type { i64 }
%"class.net::QuicFramer" = type { ptr, %"class.std::__cxx11::basic_string", ptr, ptr, i32, %"class.std::unordered_set", %"class.std::unordered_map", i64, %"class.std::unordered_map", i64, i8, i64, i32, i32, %"class.std::vector", %"class.std::unique_ptr", %"class.std::unique_ptr", i8, i8, i8, [3 x %"class.std::unique_ptr.23"], i32, i8, %"class.net::QuicTime", %"class.net::QuicTime::Delta", %"struct.std::array" }
%"class.std::__cxx11::basic_string" = type { %"struct.std::__cxx11::basic_string<char>::_Alloc_hider", i64, %union.anon }
%"struct.std::__cxx11::basic_string<char>::_Alloc_hider" = type { ptr }
%union.anon = type { i64, [8 x i8] }
%"class.std::unordered_set" = type { %"class.std::_Hashtable" }
%"class.std::_Hashtable" = type { ptr, i64, %"struct.std::__detail::_Hash_node_base", i64, %"struct.std::__detail::_Prime_rehash_policy", ptr }
%"struct.std::__detail::_Hash_node_base" = type { ptr }
%"struct.std::__detail::_Prime_rehash_policy" = type { float, i64 }
%"class.std::unordered_map" = type { %"class.std::_Hashtable.5" }
%"class.std::_Hashtable.5" = type { ptr, i64, %"struct.std::__detail::_Hash_node_base", i64, %"struct.std::__detail::_Prime_rehash_policy", ptr }
%"class.std::vector" = type { %"struct.std::_Vector_base" }
%"struct.std::_Vector_base" = type { %"struct.std::_Vector_base<net::QuicVersion, std::allocator<net::QuicVersion>>::_Vector_impl" }
%"struct.std::_Vector_base<net::QuicVersion, std::allocator<net::QuicVersion>>::_Vector_impl" = type { %"struct.std::_Vector_base<net::QuicVersion, std::allocator<net::QuicVersion>>::_Vector_impl_data" }
%"struct.std::_Vector_base<net::QuicVersion, std::allocator<net::QuicVersion>>::_Vector_impl_data" = type { ptr, ptr, ptr }
%"class.std::unique_ptr" = type { %"struct.std::__uniq_ptr_data" }
%"struct.std::__uniq_ptr_data" = type { %"class.std::__uniq_ptr_impl" }
%"class.std::__uniq_ptr_impl" = type { %"class.std::tuple" }
%"class.std::tuple" = type { %"struct.std::_Tuple_impl" }
%"struct.std::_Tuple_impl" = type { %"struct.std::_Head_base.22" }
%"struct.std::_Head_base.22" = type { ptr }
%"class.std::unique_ptr.23" = type { %"struct.std::__uniq_ptr_data.24" }
%"struct.std::__uniq_ptr_data.24" = type { %"class.std::__uniq_ptr_impl.25" }
%"class.std::__uniq_ptr_impl.25" = type { %"class.std::tuple.26" }
%"class.std::tuple.26" = type { %"struct.std::_Tuple_impl.27" }
%"struct.std::_Tuple_impl.27" = type { %"struct.std::_Head_base.30" }
%"struct.std::_Head_base.30" = type { ptr }
%"class.net::QuicTime::Delta" = type { %"class.base::TimeDelta", i64 }
%"class.base::TimeDelta" = type { i64 }
%"struct.std::array" = type { [32 x i8] }
%"class.base::BasicStringPiece" = type { ptr, i64 }

; Function Attrs: mustprogress nounwind uwtable
define linkonce_odr noundef nonnull align 8 dereferenceable(8) ptr @_ZNSt10_Head_baseILm0EPN3net13QuicEncrypterELb0EE7_M_headERKS3_(ptr noundef nonnull align 8 dereferenceable(8) %0) #1 comdat align 2 {
  %2 = alloca ptr, align 8
  store ptr %0, ptr %2, align 8, !tbaa !451
  %3 = load ptr, ptr %2, align 8, !tbaa !451
  %4 = getelementptr inbounds nuw %"struct.std::_Head_base.30", ptr %3, i32 0, i32 0
  ret ptr %4
}

; Function Attrs: mustprogress nounwind uwtable
define linkonce_odr noundef nonnull align 8 dereferenceable(8) ptr @_ZNSt11_Tuple_implILm0EJPN3net13QuicEncrypterESt14default_deleteIS1_EEE7_M_headERKS5_(ptr noundef nonnull align 8 dereferenceable(8) %0) #1 comdat align 2 {
  %2 = alloca ptr, align 8
  store ptr %0, ptr %2, align 8, !tbaa !447
  %3 = load ptr, ptr %2, align 8, !tbaa !447
  %4 = call noundef nonnull align 8 dereferenceable(8) ptr @_ZNSt10_Head_baseILm0EPN3net13QuicEncrypterELb0EE7_M_headERKS3_(ptr noundef nonnull align 8 dereferenceable(8) %3) #17
  ret ptr %4
}

; Function Attrs: mustprogress nounwind uwtable
define linkonce_odr noundef nonnull align 8 dereferenceable(8) ptr @_ZSt12__get_helperILm0EPN3net13QuicEncrypterEJSt14default_deleteIS1_EEERKT0_RKSt11_Tuple_implIXT_EJS5_DpT1_EE(ptr noundef nonnull align 8 dereferenceable(8) %0) #1 comdat {
  %2 = alloca ptr, align 8
  store ptr %0, ptr %2, align 8, !tbaa !447
  %3 = load ptr, ptr %2, align 8, !tbaa !447
  %4 = call noundef nonnull align 8 dereferenceable(8) ptr @_ZNSt11_Tuple_implILm0EJPN3net13QuicEncrypterESt14default_deleteIS1_EEE7_M_headERKS5_(ptr noundef nonnull align 8 dereferenceable(8) %3) #17
  ret ptr %4
}

; Function Attrs: mustprogress nounwind uwtable
define linkonce_odr noundef nonnull align 8 dereferenceable(8) ptr @_ZSt3getILm0EJPN3net13QuicEncrypterESt14default_deleteIS1_EEERKNSt13tuple_elementIXT_ESt5tupleIJDpT0_EEE4typeERKS9_(ptr noundef nonnull align 8 dereferenceable(8) %0) #1 comdat {
  %2 = alloca ptr, align 8
  store ptr %0, ptr %2, align 8, !tbaa !445
  %3 = load ptr, ptr %2, align 8, !tbaa !445
  %4 = call noundef nonnull align 8 dereferenceable(8) ptr @_ZSt12__get_helperILm0EPN3net13QuicEncrypterEJSt14default_deleteIS1_EEERKT0_RKSt11_Tuple_implIXT_EJS5_DpT1_EE(ptr noundef nonnull align 8 dereferenceable(8) %3) #17
  ret ptr %4
}

; Function Attrs: mustprogress nounwind uwtable
define linkonce_odr noundef ptr @_ZNKSt15__uniq_ptr_implIN3net13QuicEncrypterESt14default_deleteIS1_EE6_M_ptrEv(ptr noundef nonnull align 8 dereferenceable(8) %0) #1 comdat align 2 {
  %2 = alloca ptr, align 8
  store ptr %0, ptr %2, align 8, !tbaa !443
  %3 = load ptr, ptr %2, align 8
  %4 = getelementptr inbounds nuw %"class.std::__uniq_ptr_impl.25", ptr %3, i32 0, i32 0
  %5 = call noundef nonnull align 8 dereferenceable(8) ptr @_ZSt3getILm0EJPN3net13QuicEncrypterESt14default_deleteIS1_EEERKNSt13tuple_elementIXT_ESt5tupleIJDpT0_EEE4typeERKS9_(ptr noundef nonnull align 8 dereferenceable(8) %4) #17
  %6 = load ptr, ptr %5, align 8, !tbaa !79
  ret ptr %6
}

; Function Attrs: mustprogress nounwind uwtable
define linkonce_odr void @_ZN3net10QuicFramer9set_errorENS_13QuicErrorCodeE(ptr noundef nonnull align 8 dereferenceable(408) %0, i32 noundef %1) #1 comdat align 2 {
  %3 = alloca ptr, align 8
  %4 = alloca i32, align 4
  store ptr %0, ptr %3, align 8, !tbaa !3
  store i32 %1, ptr %4, align 4, !tbaa !108
  %5 = load ptr, ptr %3, align 8
  %6 = load i32, ptr %4, align 4, !tbaa !108
  %7 = getelementptr inbounds nuw %"class.net::QuicFramer", ptr %5, i32 0, i32 4
  store i32 %6, ptr %7, align 8, !tbaa !52
  ret void
}

; Function Attrs: mustprogress nounwind uwtable
define linkonce_odr noundef ptr @_ZNKSt10unique_ptrIN3net13QuicEncrypterESt14default_deleteIS1_EE3getEv(ptr noundef nonnull align 8 dereferenceable(8) %0) #1 comdat align 2 {
  %2 = alloca ptr, align 8
  store ptr %0, ptr %2, align 8, !tbaa !76
  %3 = load ptr, ptr %2, align 8
  %4 = getelementptr inbounds nuw %"class.std::unique_ptr.23", ptr %3, i32 0, i32 0
  %5 = call noundef ptr @_ZNKSt15__uniq_ptr_implIN3net13QuicEncrypterESt14default_deleteIS1_EE6_M_ptrEv(ptr noundef nonnull align 8 dereferenceable(8) %4) #17
  ret ptr %5
}

; Function Attrs: mustprogress uwtable
define noundef zeroext i1 @_ZN3net10QuicFramer10RaiseErrorENS_13QuicErrorCodeE(ptr noundef nonnull align 8 dereferenceable(408) %0, i32 noundef %1) #0 align 2 {
  %3 = alloca ptr, align 8
  %4 = alloca i32, align 4
  store ptr %0, ptr %3, align 8, !tbaa !3
  store i32 %1, ptr %4, align 4, !tbaa !108
  %5 = load ptr, ptr %3, align 8
  %6 = load i32, ptr %4, align 4, !tbaa !108
  call void @_ZN3net10QuicFramer9set_errorENS_13QuicErrorCodeE(ptr noundef nonnull align 8 dereferenceable(408) %5, i32 noundef %6)
  %7 = getelementptr inbounds nuw %"class.net::QuicFramer", ptr %5, i32 0, i32 2
  %8 = load ptr, ptr %7, align 8, !tbaa !14
  %9 = load ptr, ptr %8, align 8, !tbaa !12
  %10 = getelementptr inbounds ptr, ptr %9, i64 2
  %11 = load ptr, ptr %10, align 8
  call void %11(ptr noundef nonnull align 8 dereferenceable(8) %8, ptr noundef %5)
  ret i1 false
}

; Function Attrs: mustprogress nounwind uwtable
define linkonce_odr noundef ptr @_ZNKSt10unique_ptrIN3net13QuicEncrypterESt14default_deleteIS1_EEptEv(ptr noundef nonnull align 8 dereferenceable(8) %0) #1 comdat align 2 {
  %2 = alloca ptr, align 8
  store ptr %0, ptr %2, align 8, !tbaa !76
  %3 = load ptr, ptr %2, align 8
  %4 = call noundef ptr @_ZNKSt10unique_ptrIN3net13QuicEncrypterESt14default_deleteIS1_EE3getEv(ptr noundef nonnull align 8 dereferenceable(8) %3) #17
  ret ptr %4
}

; Function Attrs: mustprogress nounwind uwtable
define available_externally noundef ptr @_ZNK4base16BasicStringPieceINSt7__cxx1112basic_stringIcSt11char_traitsIcESaIcEEEE4dataEv(ptr noundef nonnull align 8 dereferenceable(16) %0) #1 align 2 {
  %2 = alloca ptr, align 8
  store ptr %0, ptr %2, align 8, !tbaa !276
  %3 = load ptr, ptr %2, align 8
  %4 = getelementptr inbounds nuw %"class.base::BasicStringPiece", ptr %3, i32 0, i32 0
  %5 = load ptr, ptr %4, align 8, !tbaa !278
  ret ptr %5
}

; Function Attrs: mustprogress nounwind uwtable
define available_externally noundef i64 @_ZNK4base16BasicStringPieceINSt7__cxx1112basic_stringIcSt11char_traitsIcESaIcEEEE6lengthEv(ptr noundef nonnull align 8 dereferenceable(16) %0) #1 align 2 {
  %2 = alloca ptr, align 8
  store ptr %0, ptr %2, align 8, !tbaa !276
  %3 = load ptr, ptr %2, align 8
  %4 = getelementptr inbounds nuw %"class.base::BasicStringPiece", ptr %3, i32 0, i32 1
  %5 = load i64, ptr %4, align 8, !tbaa !280
  ret i64 %5
}

; Function Attrs: mustprogress uwtable
define noundef i64 @_ZN3net10QuicFramer14EncryptPayloadENS_15EncryptionLevelEhmRKNS_10QuicPacketEPcm(ptr noundef nonnull align 8 dereferenceable(408) %0, i8 noundef signext %1, i8 noundef zeroext %2, i64 noundef %3, ptr noundef nonnull align 8 dereferenceable(48) %4, ptr noundef %5, i64 noundef %6) #0 align 2 {
  %8 = alloca i64, align 8
  %9 = alloca ptr, align 8
  %10 = alloca i8, align 1
  %11 = alloca i8, align 1
  %12 = alloca i64, align 8
  %13 = alloca ptr, align 8
  %14 = alloca ptr, align 8
  %15 = alloca i64, align 8
  %16 = alloca %"class.base::BasicStringPiece", align 8
  %17 = alloca i64, align 8
  %18 = alloca i64, align 8
  %19 = alloca %"class.base::BasicStringPiece", align 8
  %20 = alloca %"class.base::BasicStringPiece", align 8
  %21 = alloca i32, align 4
  store ptr %0, ptr %9, align 8, !tbaa !3
  store i8 %1, ptr %10, align 1, !tbaa !313
  store i8 %2, ptr %11, align 1, !tbaa !107
  store i64 %3, ptr %12, align 8, !tbaa !63
  store ptr %4, ptr %13, align 8, !tbaa !365
  store ptr %5, ptr %14, align 8, !tbaa !98
  store i64 %6, ptr %15, align 8, !tbaa !63
  %22 = load ptr, ptr %9, align 8
  call void @llvm.lifetime.start.p0(i64 16, ptr %16) #17
  %23 = load ptr, ptr %13, align 8, !tbaa !365
  %24 = getelementptr inbounds nuw %"class.net::QuicFramer", ptr %22, i32 0, i32 13
  %25 = load i32, ptr %24, align 4, !tbaa !65
  %26 = call { ptr, i64 } @_ZNK3net10QuicPacket14AssociatedDataB5cxx11ENS_11QuicVersionE(ptr noundef nonnull align 8 dereferenceable(48) %23, i32 noundef %25)
  %27 = getelementptr inbounds nuw { ptr, i64 }, ptr %16, i32 0, i32 0
  %28 = extractvalue { ptr, i64 } %26, 0
  store ptr %28, ptr %27, align 8
  %29 = getelementptr inbounds nuw { ptr, i64 }, ptr %16, i32 0, i32 1
  %30 = extractvalue { ptr, i64 } %26, 1
  store i64 %30, ptr %29, align 8
  call void @llvm.lifetime.start.p0(i64 8, ptr %17) #17
  %31 = call noundef i64 @_ZNK4base16BasicStringPieceINSt7__cxx1112basic_stringIcSt11char_traitsIcESaIcEEEE6lengthEv(ptr noundef nonnull align 8 dereferenceable(16) %16)
  store i64 %31, ptr %17, align 8, !tbaa !63
  %32 = load ptr, ptr %14, align 8, !tbaa !98
  %33 = call noundef ptr @_ZNK4base16BasicStringPieceINSt7__cxx1112basic_stringIcSt11char_traitsIcESaIcEEEE4dataEv(ptr noundef nonnull align 8 dereferenceable(16) %16)
  %34 = load i64, ptr %17, align 8, !tbaa !63
  call void @llvm.memmove.p0.p0.i64(ptr align 1 %32, ptr align 1 %33, i64 %34, i1 false)
  call void @llvm.lifetime.start.p0(i64 8, ptr %18) #17
  store i64 0, ptr %18, align 8, !tbaa !63
  %35 = getelementptr inbounds nuw %"class.net::QuicFramer", ptr %22, i32 0, i32 20
  %36 = load i8, ptr %10, align 1, !tbaa !313
  %37 = sext i8 %36 to i64
  %38 = getelementptr inbounds [3 x %"class.std::unique_ptr.23"], ptr %35, i64 0, i64 %37
  %39 = call noundef ptr @_ZNKSt10unique_ptrIN3net13QuicEncrypterESt14default_deleteIS1_EEptEv(ptr noundef nonnull align 8 dereferenceable(8) %38) #17
  %40 = load i8, ptr %11, align 1, !tbaa !107
  %41 = load i64, ptr %12, align 8, !tbaa !63
  call void @llvm.memcpy.p0.p0.i64(ptr align 8 %19, ptr align 8 %16, i64 16, i1 false), !tbaa.struct !312
  %42 = load ptr, ptr %13, align 8, !tbaa !365
  %43 = getelementptr inbounds nuw %"class.net::QuicFramer", ptr %22, i32 0, i32 13
  %44 = load i32, ptr %43, align 4, !tbaa !65
  %45 = call { ptr, i64 } @_ZNK3net10QuicPacket9PlaintextB5cxx11ENS_11QuicVersionE(ptr noundef nonnull align 8 dereferenceable(48) %42, i32 noundef %44)
  %46 = getelementptr inbounds nuw { ptr, i64 }, ptr %20, i32 0, i32 0
  %47 = extractvalue { ptr, i64 } %45, 0
  store ptr %47, ptr %46, align 8
  %48 = getelementptr inbounds nuw { ptr, i64 }, ptr %20, i32 0, i32 1
  %49 = extractvalue { ptr, i64 } %45, 1
  store i64 %49, ptr %48, align 8
  %50 = load ptr, ptr %14, align 8, !tbaa !98
  %51 = load i64, ptr %17, align 8, !tbaa !63
  %52 = getelementptr inbounds nuw i8, ptr %50, i64 %51
  %53 = load i64, ptr %15, align 8, !tbaa !63
  %54 = load i64, ptr %17, align 8, !tbaa !63
  %55 = sub i64 %53, %54
  %56 = getelementptr inbounds nuw { ptr, i64 }, ptr %19, i32 0, i32 0
  %57 = load ptr, ptr %56, align 8
  %58 = getelementptr inbounds nuw { ptr, i64 }, ptr %19, i32 0, i32 1
  %59 = load i64, ptr %58, align 8
  %60 = load ptr, ptr %39, align 8, !tbaa !12
  %61 = getelementptr inbounds ptr, ptr %60, i64 4
  %62 = load ptr, ptr %61, align 8
  %63 = call noundef zeroext i1 %62(ptr noundef nonnull align 8 dereferenceable(8) %39, i8 noundef zeroext %40, i64 noundef %41, ptr %57, i64 %59, ptr noundef byval(%"class.base::BasicStringPiece") align 8 %20, ptr noundef %52, ptr noundef %18, i64 noundef %55)
  %64 = xor i1 %63, true
  br i1 %64, label %65, label %67

65:                                               ; preds = %7
  %66 = call noundef zeroext i1 @_ZN3net10QuicFramer10RaiseErrorENS_13QuicErrorCodeE(ptr noundef nonnull align 8 dereferenceable(408) %22, i32 noundef 13)
  store i64 0, ptr %8, align 8
  store i32 1, ptr %21, align 4
  br label %71

67:                                               ; preds = %7
  %68 = load i64, ptr %17, align 8, !tbaa !63
  %69 = load i64, ptr %18, align 8, !tbaa !63
  %70 = add i64 %68, %69
  store i64 %70, ptr %8, align 8
  store i32 1, ptr %21, align 4
  br label %71

71:                                               ; preds = %67, %65
  call void @llvm.lifetime.end.p0(i64 8, ptr %18) #17
  call void @llvm.lifetime.end.p0(i64 8, ptr %17) #17
  call void @llvm.lifetime.end.p0(i64 16, ptr %16) #17
  %72 = load i64, ptr %8, align 8
  ret i64 %72
}