; Function Attrs: mustprogress uwtable
define noundef i64 @_ZN3net10QuicFramer14EncryptPayloadENS_15EncryptionLevelEhmRKNS_10QuicPacketEPcm(ptr noundef nonnull align 8 dereferenceable(408) %0, i8 noundef signext %1, i8 noundef zeroext %2, i64 noundef %3, ptr noundef nonnull align 8 dereferenceable(48) %4, ptr noundef %5, i64 noundef %6) local_unnamed_addr #0 align 2 {
  %8 = alloca i64, align 8
  %9 = alloca %"class.base::BasicStringPiece", align 8
  %10 = getelementptr inbounds nuw i8, ptr %0, i64 268
  %11 = load i32, ptr %10, align 4, !tbaa !67
  %12 = tail call { ptr, i64 } @_ZNK3net10QuicPacket14AssociatedDataB5cxx11ENS_11QuicVersionE(ptr noundef nonnull align 8 dereferenceable(48) %4, i32 noundef %11)
  %13 = extractvalue { ptr, i64 } %12, 0
  %14 = extractvalue { ptr, i64 } %12, 1
  tail call void @llvm.memmove.p0.p0.i64(ptr align 1 %5, ptr align 1 %13, i64 %14, i1 false)
  call void @llvm.lifetime.start.p0(i64 8, ptr nonnull %8) #26
  store i64 0, ptr %8, align 8, !tbaa !65
  %15 = getelementptr inbounds nuw i8, ptr %0, i64 320
  %16 = sext i8 %1 to i64
  %17 = getelementptr inbounds [3 x %"class.std::unique_ptr.23"], ptr %15, i64 0, i64 %16
  %18 = load ptr, ptr %17, align 8, !tbaa !69
  %19 = load i32, ptr %10, align 4, !tbaa !67
  %20 = tail call { ptr, i64 } @_ZNK3net10QuicPacket9PlaintextB5cxx11ENS_11QuicVersionE(ptr noundef nonnull align 8 dereferenceable(48) %4, i32 noundef %19)
  %21 = extractvalue { ptr, i64 } %20, 0
  store ptr %21, ptr %9, align 8
  %22 = getelementptr inbounds nuw i8, ptr %9, i64 8
  %23 = extractvalue { ptr, i64 } %20, 1
  store i64 %23, ptr %22, align 8
  %24 = getelementptr inbounds nuw i8, ptr %5, i64 %14
  %25 = sub i64 %6, %14
  %26 = load ptr, ptr %18, align 8, !tbaa !3
  %27 = getelementptr inbounds nuw i8, ptr %26, i64 32
  %28 = load ptr, ptr %27, align 8
  %29 = call noundef zeroext i1 %28(ptr noundef nonnull align 8 dereferenceable(8) %18, i8 noundef zeroext %2, i64 noundef %3, ptr %13, i64 %14, ptr noundef nonnull byval(%"class.base::BasicStringPiece") align 8 %9, ptr noundef %24, ptr noundef nonnull %8, i64 noundef %25)
  br i1 %29, label %37, label %30

30:                                               ; preds = %7
  %31 = getelementptr inbounds nuw i8, ptr %0, i64 56
  store i32 13, ptr %31, align 8, !tbaa !92
  %32 = getelementptr inbounds nuw i8, ptr %0, i64 40
  %33 = load ptr, ptr %32, align 8, !tbaa !93
  %34 = load ptr, ptr %33, align 8, !tbaa !3
  %35 = getelementptr inbounds nuw i8, ptr %34, i64 16
  %36 = load ptr, ptr %35, align 8
  call void %36(ptr noundef nonnull align 8 dereferenceable(8) %33, ptr noundef nonnull align 8 dereferenceable(408) %0)
  br label %40

37:                                               ; preds = %7
  %38 = load i64, ptr %8, align 8, !tbaa !65
  %39 = add i64 %38, %14
  br label %40

40:                                               ; preds = %37, %30
  %.0 = phi i64 [ 0, %30 ], [ %39, %37 ]
  call void @llvm.lifetime.end.p0(i64 8, ptr nonnull %8) #26
  ret i64 %.0
}